; Function Attrs: nofree norecurse nosync nounwind memory(readwrite, inaccessiblemem: none) uwtable
define internal void @delay_channel_u8p(ptr noundef captures(none) %0, i32 noundef %1, ptr noundef readonly captures(none) %2, ptr noundef writeonly captures(none) %3) #5 {
  %5 = getelementptr inbounds nuw i8, ptr %0, i64 32
  %6 = load ptr, ptr %5, align 8, !tbaa !75
  %.not49 = icmp eq i32 %1, 0
  br i1 %.not49, label %._crit_edge, label %.lr.ph

.lr.ph:                                           ; preds = %4
  %7 = getelementptr inbounds nuw i8, ptr %0, i64 8
  %8 = getelementptr inbounds nuw i8, ptr %0, i64 16
  br label %9

9:                                                ; preds = %.lr.ph, %38
  %.052 = phi i32 [ %1, %.lr.ph ], [ %.1, %38 ]
  %.03951 = phi ptr [ %2, %.lr.ph ], [ %.140, %38 ]
  %.04150 = phi ptr [ %3, %.lr.ph ], [ %.142, %38 ]
  %10 = load i64, ptr %7, align 8, !tbaa !79
  %11 = load i64, ptr %0, align 8, !tbaa !46
  %12 = icmp ult i64 %10, %11
  br i1 %12, label %13, label %25

13:                                               ; preds = %9
  %14 = sext i32 %.052 to i64
  %15 = sub nuw i64 %11, %10
  %16 = tail call i64 @llvm.umin.i64(i64 %15, i64 %14)
  %17 = trunc i64 %16 to i32
  %18 = getelementptr inbounds nuw i8, ptr %6, i64 %10
  %sext = shl i64 %16, 32
  %19 = ashr exact i64 %sext, 32
  tail call void @llvm.memcpy.p0.p0.i64(ptr align 1 %18, ptr align 1 %.03951, i64 %19, i1 false)
  tail call void @llvm.memset.p0.i64(ptr align 1 %.04150, i8 -128, i64 %19, i1 false)
  %20 = load i64, ptr %7, align 8, !tbaa !79
  %21 = add i64 %20, %19
  store i64 %21, ptr %7, align 8, !tbaa !79
  %22 = getelementptr inbounds i8, ptr %.03951, i64 %19
  %23 = getelementptr inbounds i8, ptr %.04150, i64 %19
  %24 = sub nsw i32 %.052, %17
  br label %38

25:                                               ; preds = %9
  %26 = load i64, ptr %8, align 8, !tbaa !80
  %27 = getelementptr inbounds nuw i8, ptr %6, i64 %26
  %28 = load i8, ptr %27, align 1, !tbaa !42
  store i8 %28, ptr %.04150, align 1, !tbaa !42
  %29 = load i8, ptr %.03951, align 1, !tbaa !42
  %30 = load i64, ptr %8, align 8, !tbaa !80
  %31 = getelementptr inbounds nuw i8, ptr %6, i64 %30
  store i8 %29, ptr %31, align 1, !tbaa !42
  %32 = add nsw i32 %.052, -1
  %33 = load i64, ptr %8, align 8, !tbaa !80
  %34 = add i64 %33, 1
  %35 = getelementptr inbounds nuw i8, ptr %.03951, i64 1
  %36 = getelementptr inbounds nuw i8, ptr %.04150, i64 1
  %37 = load i64, ptr %0, align 8, !tbaa !46
  %.not48 = icmp ult i64 %34, %37
  %spec.select = select i1 %.not48, i64 %34, i64 0
  store i64 %spec.select, ptr %8, align 8, !tbaa !80
  br label %38

38:                                               ; preds = %25, %13
  %.142 = phi ptr [ %23, %13 ], [ %36, %25 ]
  %.140 = phi ptr [ %22, %13 ], [ %35, %25 ]
  %.1 = phi i32 [ %24, %13 ], [ %32, %25 ]
  %.not = icmp eq i32 %.1, 0
  br i1 %.not, label %._crit_edge, label %9, !llvm.loop !81

._crit_edge:                                      ; preds = %38, %4
  ret void
}